target datalayout = "e-m:e-p270:32:32-p271:32:32-p272:64:64-i64:64-i128:128-f80:128-n8:16:32:64-S128"
target triple = "x86_64-pc-linux-gnu"

%struct.ge25519_p3 = type { [5 x i64], [5 x i64], [5 x i64], [5 x i64] }

; Function Attrs: nounwind ssp uwtable
define dso_local i32 @crypto_core_ed25519_is_valid_point(ptr noundef nonnull %0) #0 {
  %2 = alloca i32, align 4
  %3 = alloca ptr, align 8
  %4 = alloca %struct.ge25519_p3, align 8
  %5 = alloca i32, align 4
  store ptr %0, ptr %3, align 8
  call void @llvm.lifetime.start.p0(i64 160, ptr %4) #7
  %6 = load ptr, ptr %3, align 8
  %7 = call i32 @_sodium_ge25519_is_canonical(ptr noundef %6)
  %8 = icmp eq i32 %7, 0
  br i1 %8, label %22, label %9

9:                                                ; preds = %1
  %10 = load ptr, ptr %3, align 8
  %11 = call i32 @_sodium_ge25519_frombytes(ptr noundef %4, ptr noundef %10)
  %12 = icmp ne i32 %11, 0
  br i1 %12, label %22, label %13

13:                                               ; preds = %9
  %14 = call i32 @_sodium_ge25519_is_on_curve(ptr noundef %4)
  %15 = icmp eq i32 %14, 0
  br i1 %15, label %22, label %16

16:                                               ; preds = %13
  %17 = call i32 @_sodium_ge25519_has_small_order(ptr noundef %4)
  %18 = icmp ne i32 %17, 0
  br i1 %18, label %22, label %19

19:                                               ; preds = %16
  %20 = call i32 @_sodium_ge25519_is_on_main_subgroup(ptr noundef %4)
  %21 = icmp eq i32 %20, 0
  br i1 %21, label %22, label %23

22:                                               ; preds = %19, %16, %13, %9, %1
  store i32 0, ptr %2, align 4
  store i32 1, ptr %5, align 4
  br label %24

23:                                               ; preds = %19
  store i32 1, ptr %2, align 4
  store i32 1, ptr %5, align 4
  br label %24

24:                                               ; preds = %23, %22
  call void @llvm.lifetime.end.p0(i64 160, ptr %4) #7
  %25 = load i32, ptr %2, align 4
  ret i32 %25
}