; Function Attrs: nounwind ssp uwtable
define dso_local range(i32 0, 2) i32 @crypto_core_ed25519_is_valid_point(ptr noundef nonnull %0) local_unnamed_addr #0 {
  %2 = alloca %struct.ge25519_p3, align 8
  call void @llvm.lifetime.start.p0(i64 160, ptr nonnull %2) #6
  %3 = tail call i32 @_sodium_ge25519_is_canonical(ptr noundef nonnull %0) #6
  %4 = icmp eq i32 %3, 0
  br i1 %4, label %15, label %5

5:                                                ; preds = %1
  %6 = call i32 @_sodium_ge25519_frombytes(ptr noundef nonnull %2, ptr noundef nonnull %0) #6
  %.not = icmp eq i32 %6, 0
  br i1 %.not, label %7, label %15

7:                                                ; preds = %5
  %8 = call i32 @_sodium_ge25519_is_on_curve(ptr noundef nonnull %2) #6
  %9 = icmp eq i32 %8, 0
  br i1 %9, label %15, label %10

10:                                               ; preds = %7
  %11 = call i32 @_sodium_ge25519_has_small_order(ptr noundef nonnull %2) #6
  %.not2 = icmp eq i32 %11, 0
  br i1 %.not2, label %12, label %15

12:                                               ; preds = %10
  %13 = call i32 @_sodium_ge25519_is_on_main_subgroup(ptr noundef nonnull %2) #6
  %14 = icmp ne i32 %13, 0
  %spec.select = zext i1 %14 to i32
  br label %15

15:                                               ; preds = %12, %1, %5, %7, %10
  %.0 = phi i32 [ 0, %10 ], [ 0, %7 ], [ 0, %5 ], [ 0, %1 ], [ %spec.select, %12 ]
  call void @llvm.lifetime.end.p0(i64 160, ptr nonnull %2) #6
  ret i32 %.0
}